; Function Attrs: nounwind uwtable
define void @lv_spangroup_set_indent(ptr noundef %0, i32 noundef %1) local_unnamed_addr #0 {
  %3 = getelementptr inbounds nuw i8, ptr %0, i64 68
  %4 = load i32, ptr %3, align 4, !tbaa !3
  %5 = icmp eq i32 %4, %1
  br i1 %5, label %11, label %6

6:                                                ; preds = %2
  store i32 %1, ptr %3, align 4, !tbaa !3
  %7 = getelementptr inbounds nuw i8, ptr %0, i64 104
  %8 = load i8, ptr %7, align 8
  %9 = or i8 %8, 8
  store i8 %9, ptr %7, align 8
  tail call void @lv_obj_invalidate(ptr noundef nonnull %0) #8
  %10 = tail call zeroext i1 @lv_obj_refresh_self_size(ptr noundef nonnull %0) #8
  br label %11

11:                                               ; preds = %2, %6
  ret void
}